target datalayout = "e-m:e-p270:32:32-p271:32:32-p272:64:64-i64:64-i128:128-f80:128-n8:16:32:64-S128"
target triple = "x86_64-pc-linux-gnu"

%"struct.gmx::EnumerationArray.0" = type { [6 x double] }
%"class.gmx::TimeUnitManager" = type { i32 }
%"class.gmx::TimeUnitBehavior" = type { %"class.gmx::IOptionsBehavior", i32, ptr }
%"class.gmx::IOptionsBehavior" = type { ptr }
%"class.gmx::(anonymous namespace)::TimeOptionScaler" = type { %"class.gmx::OptionsModifyingTypeVisitor", double }
%"class.gmx::OptionsModifyingTypeVisitor" = type { %"class.gmx::OptionsModifyingVisitor" }
%"class.gmx::OptionsModifyingVisitor" = type { ptr }
%"class.gmx::(anonymous namespace)::TimeOptionScaler.6" = type { %"class.gmx::OptionsModifyingTypeVisitor.7", double }
%"class.gmx::OptionsModifyingTypeVisitor.7" = type { %"class.gmx::OptionsModifyingVisitor" }
%"class.gmx::OptionsModifyingIterator" = type { ptr }

@_ZN3gmx12_GLOBAL__N_122c_timeUnitScaleFactorsE = internal constant %"struct.gmx::EnumerationArray.0" { [6 x double] [double 1.000000e-03, double 1.000000e+00, double 1.000000e+03, double 1.000000e+06, double 1.000000e+09, double 1.000000e+12] }, align 8
@_ZN3gmx15TimeUnitManagerC1ENS_8TimeUnitE = unnamed_addr alias void (ptr, i32), ptr @_ZN3gmx15TimeUnitManagerC2ENS_8TimeUnitE

; Function Attrs: inlinehint mustprogress nounwind uwtable
define linkonce_odr void @_ZN3gmx23OptionsModifyingVisitorC2Ev(ptr noundef nonnull align 8 dereferenceable(8) %0) unnamed_addr #2 comdat align 2 {
  %2 = alloca ptr, align 8
  store ptr %0, ptr %2, align 8, !tbaa !321
  %3 = load ptr, ptr %2, align 8
  store ptr getelementptr inbounds inrange(-16, 32) ({ [6 x ptr] }, ptr @_ZTVN3gmx23OptionsModifyingVisitorE, i32 0, i32 0, i32 2), ptr %3, align 8, !tbaa !22
  ret void
}

; Function Attrs: inlinehint mustprogress nounwind uwtable
define linkonce_odr void @_ZN3gmx27OptionsModifyingTypeVisitorINS_15FloatOptionInfoEEC2Ev(ptr noundef nonnull align 8 dereferenceable(8) %0) unnamed_addr #2 comdat align 2 {
  %2 = alloca ptr, align 8
  store ptr %0, ptr %2, align 8, !tbaa !323
  %3 = load ptr, ptr %2, align 8
  call void @_ZN3gmx23OptionsModifyingVisitorC2Ev(ptr noundef nonnull align 8 dereferenceable(8) %3) #19
  store ptr getelementptr inbounds inrange(-16, 40) ({ [7 x ptr] }, ptr @_ZTVN3gmx27OptionsModifyingTypeVisitorINS_15FloatOptionInfoEEE, i32 0, i32 0, i32 2), ptr %3, align 8, !tbaa !22
  ret void
}

; Function Attrs: inlinehint mustprogress nounwind uwtable
define linkonce_odr void @_ZN3gmx27OptionsModifyingTypeVisitorINS_16DoubleOptionInfoEEC2Ev(ptr noundef nonnull align 8 dereferenceable(8) %0) unnamed_addr #2 comdat align 2 {
  %2 = alloca ptr, align 8
  store ptr %0, ptr %2, align 8, !tbaa !317
  %3 = load ptr, ptr %2, align 8
  call void @_ZN3gmx23OptionsModifyingVisitorC2Ev(ptr noundef nonnull align 8 dereferenceable(8) %3) #19
  store ptr getelementptr inbounds inrange(-16, 40) ({ [7 x ptr] }, ptr @_ZTVN3gmx27OptionsModifyingTypeVisitorINS_16DoubleOptionInfoEEE, i32 0, i32 0, i32 2), ptr %3, align 8, !tbaa !22
  ret void
}

; Function Attrs: mustprogress nounwind uwtable
define linkonce_odr noundef nonnull align 8 dereferenceable(8) ptr @_ZNK3gmx16EnumerationArrayINS_8TimeUnitEdLS1_6EEixES1_(ptr noundef nonnull align 8 dereferenceable(48) %0, i32 noundef %1) #0 comdat align 2 {
  %3 = alloca ptr, align 8
  %4 = alloca i32, align 4
  store ptr %0, ptr %3, align 8, !tbaa !18
  store i32 %1, ptr %4, align 4, !tbaa !11
  %5 = load ptr, ptr %3, align 8
  %6 = getelementptr inbounds nuw %"struct.gmx::EnumerationArray.0", ptr %5, i32 0, i32 0
  %7 = load i32, ptr %4, align 4, !tbaa !11
  %8 = sext i32 %7 to i64
  %9 = getelementptr inbounds nuw [6 x double], ptr %6, i64 0, i64 %8
  ret ptr %9
}

; Function Attrs: mustprogress uwtable
define internal void @_ZN3gmx12_GLOBAL__N_116TimeOptionScalerINS_15FloatOptionInfoEE12visitSectionEPNS_17OptionSectionInfoE(ptr noundef nonnull align 8 dereferenceable(16) %0, ptr noundef %1) unnamed_addr #1 align 2 {
  %3 = alloca ptr, align 8
  %4 = alloca ptr, align 8
  %5 = alloca %"class.gmx::OptionsModifyingIterator", align 8
  store ptr %0, ptr %3, align 8, !tbaa !89
  store ptr %1, ptr %4, align 8, !tbaa !87
  %6 = load ptr, ptr %3, align 8
  call void @llvm.lifetime.start.p0(i64 8, ptr %5) #19
  %7 = load ptr, ptr %4, align 8, !tbaa !87
  call void @_ZN3gmx24OptionsModifyingIteratorC1EPNS_17OptionSectionInfoE(ptr noundef nonnull align 8 dereferenceable(8) %5, ptr noundef %7)
  call void @_ZNK3gmx24OptionsModifyingIterator14acceptSectionsEPNS_23OptionsModifyingVisitorE(ptr noundef nonnull align 8 dereferenceable(8) %5, ptr noundef %6)
  call void @_ZNK3gmx24OptionsModifyingIterator13acceptOptionsEPNS_23OptionsModifyingVisitorE(ptr noundef nonnull align 8 dereferenceable(8) %5, ptr noundef %6)
  call void @llvm.lifetime.end.p0(i64 8, ptr %5) #19
  ret void
}

; Function Attrs: mustprogress nounwind uwtable
define internal void @_ZN3gmx12_GLOBAL__N_116TimeOptionScalerINS_15FloatOptionInfoEEC2Ed(ptr noundef nonnull align 8 dereferenceable(16) %0, double noundef %1) unnamed_addr #0 align 2 {
  %3 = alloca ptr, align 8
  %4 = alloca double, align 8
  store ptr %0, ptr %3, align 8, !tbaa !89
  store double %1, ptr %4, align 8, !tbaa !16
  %5 = load ptr, ptr %3, align 8
  call void @_ZN3gmx27OptionsModifyingTypeVisitorINS_15FloatOptionInfoEEC2Ev(ptr noundef nonnull align 8 dereferenceable(8) %5) #19
  store ptr getelementptr inbounds inrange(-16, 40) ({ [7 x ptr] }, ptr @_ZTVN3gmx12_GLOBAL__N_116TimeOptionScalerINS_15FloatOptionInfoEEE, i32 0, i32 0, i32 2), ptr %5, align 8, !tbaa !22
  %6 = getelementptr inbounds nuw %"class.gmx::(anonymous namespace)::TimeOptionScaler.6", ptr %5, i32 0, i32 1
  %7 = load double, ptr %4, align 8, !tbaa !16
  store double %7, ptr %6, align 8, !tbaa !91
  ret void
}

; Function Attrs: mustprogress nounwind uwtable
define linkonce_odr void @_ZN3gmx23OptionsModifyingVisitorD2Ev(ptr noundef nonnull align 8 dereferenceable(8) %0) unnamed_addr #0 comdat align 2 {
  %2 = alloca ptr, align 8
  store ptr %0, ptr %2, align 8, !tbaa !321
  ret void
}

; Function Attrs: mustprogress uwtable
define internal void @_ZN3gmx12_GLOBAL__N_116TimeOptionScalerINS_16DoubleOptionInfoEE12visitSectionEPNS_17OptionSectionInfoE(ptr noundef nonnull align 8 dereferenceable(16) %0, ptr noundef %1) unnamed_addr #1 align 2 {
  %3 = alloca ptr, align 8
  %4 = alloca ptr, align 8
  %5 = alloca %"class.gmx::OptionsModifyingIterator", align 8
  store ptr %0, ptr %3, align 8, !tbaa !81
  store ptr %1, ptr %4, align 8, !tbaa !87
  %6 = load ptr, ptr %3, align 8
  call void @llvm.lifetime.start.p0(i64 8, ptr %5) #19
  %7 = load ptr, ptr %4, align 8, !tbaa !87
  call void @_ZN3gmx24OptionsModifyingIteratorC1EPNS_17OptionSectionInfoE(ptr noundef nonnull align 8 dereferenceable(8) %5, ptr noundef %7)
  call void @_ZNK3gmx24OptionsModifyingIterator14acceptSectionsEPNS_23OptionsModifyingVisitorE(ptr noundef nonnull align 8 dereferenceable(8) %5, ptr noundef %6)
  call void @_ZNK3gmx24OptionsModifyingIterator13acceptOptionsEPNS_23OptionsModifyingVisitorE(ptr noundef nonnull align 8 dereferenceable(8) %5, ptr noundef %6)
  call void @llvm.lifetime.end.p0(i64 8, ptr %5) #19
  ret void
}

; Function Attrs: mustprogress nounwind uwtable
define internal void @_ZN3gmx12_GLOBAL__N_116TimeOptionScalerINS_16DoubleOptionInfoEEC2Ed(ptr noundef nonnull align 8 dereferenceable(16) %0, double noundef %1) unnamed_addr #0 align 2 {
  %3 = alloca ptr, align 8
  %4 = alloca double, align 8
  store ptr %0, ptr %3, align 8, !tbaa !81
  store double %1, ptr %4, align 8, !tbaa !16
  %5 = load ptr, ptr %3, align 8
  call void @_ZN3gmx27OptionsModifyingTypeVisitorINS_16DoubleOptionInfoEEC2Ev(ptr noundef nonnull align 8 dereferenceable(8) %5) #19
  store ptr getelementptr inbounds inrange(-16, 40) ({ [7 x ptr] }, ptr @_ZTVN3gmx12_GLOBAL__N_116TimeOptionScalerINS_16DoubleOptionInfoEEE, i32 0, i32 0, i32 2), ptr %5, align 8, !tbaa !22
  %6 = getelementptr inbounds nuw %"class.gmx::(anonymous namespace)::TimeOptionScaler", ptr %5, i32 0, i32 1
  %7 = load double, ptr %4, align 8, !tbaa !16
  store double %7, ptr %6, align 8, !tbaa !83
  ret void
}

; Function Attrs: mustprogress uwtable
define noundef double @_ZNK3gmx15TimeUnitManager15timeScaleFactorEv(ptr noundef nonnull align 4 dereferenceable(4) %0) #1 align 2 {
  %2 = alloca ptr, align 8
  store ptr %0, ptr %2, align 8, !tbaa !3
  %3 = load ptr, ptr %2, align 8
  %4 = getelementptr inbounds nuw %"class.gmx::TimeUnitManager", ptr %3, i32 0, i32 0
  %5 = load i32, ptr %4, align 4, !tbaa !8
  %6 = call noundef nonnull align 8 dereferenceable(8) ptr @_ZNK3gmx16EnumerationArrayINS_8TimeUnitEdLS1_6EEixES1_(ptr noundef nonnull align 8 dereferenceable(48) @_ZN3gmx12_GLOBAL__N_122c_timeUnitScaleFactorsE, i32 noundef %5)
  %7 = load double, ptr %6, align 8, !tbaa !16
  ret double %7
}

; Function Attrs: mustprogress nounwind uwtable
define linkonce_odr noundef i32 @_ZNK3gmx16TimeUnitBehavior8timeUnitEv(ptr noundef nonnull align 8 dereferenceable(24) %0) #0 comdat align 2 {
  %2 = alloca ptr, align 8
  store ptr %0, ptr %2, align 8, !tbaa !20
  %3 = load ptr, ptr %2, align 8
  %4 = getelementptr inbounds nuw %"class.gmx::TimeUnitBehavior", ptr %3, i32 0, i32 1
  %5 = load i32, ptr %4, align 8, !tbaa !24
  ret i32 %5
}

; Function Attrs: mustprogress uwtable
define void @_ZN3gmx16TimeUnitBehavior16optionsFinishingEPNS_7OptionsE(ptr noundef nonnull align 8 dereferenceable(24) %0, ptr noundef %1) unnamed_addr #1 align 2 personality ptr @__gxx_personality_v0 {
  %3 = alloca ptr, align 8
  %4 = alloca ptr, align 8
  %5 = alloca double, align 8
  %6 = alloca %"class.gmx::TimeUnitManager", align 4
  %7 = alloca %"class.gmx::(anonymous namespace)::TimeOptionScaler", align 8
  %8 = alloca ptr, align 8
  %9 = alloca i32, align 4
  %10 = alloca %"class.gmx::(anonymous namespace)::TimeOptionScaler.6", align 8
  store ptr %0, ptr %3, align 8, !tbaa !20
  store ptr %1, ptr %4, align 8, !tbaa !79
  %11 = load ptr, ptr %3, align 8
  call void @llvm.lifetime.start.p0(i64 8, ptr %5) #19
  call void @llvm.lifetime.start.p0(i64 4, ptr %6) #19
  %12 = call noundef i32 @_ZNK3gmx16TimeUnitBehavior8timeUnitEv(ptr noundef nonnull align 8 dereferenceable(24) %11)
  call void @_ZN3gmx15TimeUnitManagerC1ENS_8TimeUnitE(ptr noundef nonnull align 4 dereferenceable(4) %6, i32 noundef %12)
  %13 = call noundef double @_ZNK3gmx15TimeUnitManager15timeScaleFactorEv(ptr noundef nonnull align 4 dereferenceable(4) %6)
  call void @llvm.lifetime.end.p0(i64 4, ptr %6) #19
  store double %13, ptr %5, align 8, !tbaa !16
  call void @llvm.lifetime.start.p0(i64 16, ptr %7) #19
  %14 = load double, ptr %5, align 8, !tbaa !16
  call void @_ZN3gmx12_GLOBAL__N_116TimeOptionScalerINS_16DoubleOptionInfoEEC2Ed(ptr noundef nonnull align 8 dereferenceable(16) %7, double noundef %14)
  %15 = load ptr, ptr %4, align 8, !tbaa !79
  %16 = invoke noundef nonnull align 1 ptr @_ZN3gmx7Options11rootSectionEv(ptr noundef nonnull align 8 dereferenceable(16) %15)
          to label %17 unwind label %32

17:                                               ; preds = %2
  invoke void @_ZN3gmx12_GLOBAL__N_116TimeOptionScalerINS_16DoubleOptionInfoEE12visitSectionEPNS_17OptionSectionInfoE(ptr noundef nonnull align 8 dereferenceable(16) %7, ptr noundef %16)
          to label %18 unwind label %32

18:                                               ; preds = %17
  call void @_ZN3gmx23OptionsModifyingVisitorD2Ev(ptr noundef nonnull align 8 dereferenceable(16) %7) #19
  call void @llvm.lifetime.end.p0(i64 16, ptr %7) #19
  call void @llvm.lifetime.start.p0(i64 16, ptr %10) #19
  %19 = load double, ptr %5, align 8, !tbaa !16
  call void @_ZN3gmx12_GLOBAL__N_116TimeOptionScalerINS_15FloatOptionInfoEEC2Ed(ptr noundef nonnull align 8 dereferenceable(16) %10, double noundef %19)
  %20 = load ptr, ptr %4, align 8, !tbaa !79
  %21 = invoke noundef nonnull align 1 ptr @_ZN3gmx7Options11rootSectionEv(ptr noundef nonnull align 8 dereferenceable(16) %20)
          to label %22 unwind label %36

22:                                               ; preds = %18
  invoke void @_ZN3gmx12_GLOBAL__N_116TimeOptionScalerINS_15FloatOptionInfoEE12visitSectionEPNS_17OptionSectionInfoE(ptr noundef nonnull align 8 dereferenceable(16) %10, ptr noundef %21)
          to label %23 unwind label %36

23:                                               ; preds = %22
  call void @_ZN3gmx23OptionsModifyingVisitorD2Ev(ptr noundef nonnull align 8 dereferenceable(16) %10) #19
  call void @llvm.lifetime.end.p0(i64 16, ptr %10) #19
  %24 = getelementptr inbounds nuw %"class.gmx::TimeUnitBehavior", ptr %11, i32 0, i32 2
  %25 = load ptr, ptr %24, align 8, !tbaa !27
  %26 = icmp ne ptr %25, null
  br i1 %26, label %27, label %40

27:                                               ; preds = %23
  %28 = getelementptr inbounds nuw %"class.gmx::TimeUnitBehavior", ptr %11, i32 0, i32 1
  %29 = load i32, ptr %28, align 8, !tbaa !24
  %30 = getelementptr inbounds nuw %"class.gmx::TimeUnitBehavior", ptr %11, i32 0, i32 2
  %31 = load ptr, ptr %30, align 8, !tbaa !27
  store i32 %29, ptr %31, align 4, !tbaa !11
  br label %40

32:                                               ; preds = %17, %2
  %33 = landingpad { ptr, i32 }
          cleanup
  %34 = extractvalue { ptr, i32 } %33, 0
  store ptr %34, ptr %8, align 8
  %35 = extractvalue { ptr, i32 } %33, 1
  store i32 %35, ptr %9, align 4
  call void @_ZN3gmx23OptionsModifyingVisitorD2Ev(ptr noundef nonnull align 8 dereferenceable(16) %7) #19
  call void @llvm.lifetime.end.p0(i64 16, ptr %7) #19
  br label %41

36:                                               ; preds = %22, %18
  %37 = landingpad { ptr, i32 }
          cleanup
  %38 = extractvalue { ptr, i32 } %37, 0
  store ptr %38, ptr %8, align 8
  %39 = extractvalue { ptr, i32 } %37, 1
  store i32 %39, ptr %9, align 4
  call void @_ZN3gmx23OptionsModifyingVisitorD2Ev(ptr noundef nonnull align 8 dereferenceable(16) %10) #19
  call void @llvm.lifetime.end.p0(i64 16, ptr %10) #19
  br label %41

40:                                               ; preds = %27, %23
  call void @llvm.lifetime.end.p0(i64 8, ptr %5) #19
  ret void

41:                                               ; preds = %36, %32
  call void @llvm.lifetime.end.p0(i64 8, ptr %5) #19
  br label %42

42:                                               ; preds = %41
  %43 = load ptr, ptr %8, align 8
  %44 = load i32, ptr %9, align 4
  %45 = insertvalue { ptr, i32 } poison, ptr %43, 0
  %46 = insertvalue { ptr, i32 } %45, i32 %44, 1
  resume { ptr, i32 } %46
}