; Function Attrs: mustprogress uwtable
define void @_ZN3gmx16TimeUnitBehavior16optionsFinishingEPNS_7OptionsE(ptr noundef nonnull readonly align 8 captures(none) dereferenceable(24) %0, ptr noundef %1) unnamed_addr #4 align 2 personality ptr @__gxx_personality_v0 {
.noexc:
  %2 = alloca %"class.gmx::OptionsModifyingIterator", align 8
  %3 = alloca %"class.gmx::OptionsModifyingIterator", align 8
  %4 = alloca %"class.gmx::TimeUnitManager", align 4
  %5 = alloca %"class.gmx::(anonymous namespace)::TimeOptionScaler", align 8
  %6 = alloca %"class.gmx::(anonymous namespace)::TimeOptionScaler.6", align 8
  call void @llvm.lifetime.start.p0(i64 4, ptr nonnull %4) #24
  %7 = getelementptr inbounds nuw i8, ptr %0, i64 8
  %8 = load i32, ptr %7, align 8, !tbaa !15
  call void @_ZN3gmx15TimeUnitManagerC1ENS_8TimeUnitE(ptr noundef nonnull align 4 dereferenceable(4) %4, i32 noundef %8)
  %9 = load i32, ptr %4, align 4, !tbaa !3
  %10 = sext i32 %9 to i64
  %11 = getelementptr inbounds nuw [6 x double], ptr @_ZN3gmx12_GLOBAL__N_122c_timeUnitScaleFactorsE, i64 0, i64 %10
  %12 = load double, ptr %11, align 8, !tbaa !11
  call void @llvm.lifetime.end.p0(i64 4, ptr nonnull %4) #24
  call void @llvm.lifetime.start.p0(i64 16, ptr nonnull %5) #24
  store ptr getelementptr inbounds nuw inrange(-16, 40) (i8, ptr @_ZTVN3gmx12_GLOBAL__N_116TimeOptionScalerINS_16DoubleOptionInfoEEE, i64 16), ptr %5, align 8, !tbaa !13
  %13 = getelementptr inbounds nuw i8, ptr %5, i64 8
  store double %12, ptr %13, align 8, !tbaa !76
  %14 = call noundef nonnull align 1 ptr @_ZN3gmx7Options11rootSectionEv(ptr noundef nonnull align 8 dereferenceable(16) %1)
  call void @llvm.lifetime.start.p0(i64 8, ptr nonnull %3) #24
  call void @_ZN3gmx24OptionsModifyingIteratorC1EPNS_17OptionSectionInfoE(ptr noundef nonnull align 8 dereferenceable(8) %3, ptr noundef nonnull %14)
  call void @_ZNK3gmx24OptionsModifyingIterator14acceptSectionsEPNS_23OptionsModifyingVisitorE(ptr noundef nonnull align 8 dereferenceable(8) %3, ptr noundef nonnull align 8 dereferenceable(16) %5)
  call void @_ZNK3gmx24OptionsModifyingIterator13acceptOptionsEPNS_23OptionsModifyingVisitorE(ptr noundef nonnull align 8 dereferenceable(8) %3, ptr noundef nonnull align 8 dereferenceable(16) %5)
  call void @llvm.lifetime.end.p0(i64 8, ptr nonnull %3) #24
  call void @llvm.lifetime.end.p0(i64 16, ptr nonnull %5) #24
  call void @llvm.lifetime.start.p0(i64 16, ptr nonnull %6) #24
  store ptr getelementptr inbounds nuw inrange(-16, 40) (i8, ptr @_ZTVN3gmx12_GLOBAL__N_116TimeOptionScalerINS_15FloatOptionInfoEEE, i64 16), ptr %6, align 8, !tbaa !13
  %15 = getelementptr inbounds nuw i8, ptr %6, i64 8
  store double %12, ptr %15, align 8, !tbaa !80
  %16 = call noundef nonnull align 1 ptr @_ZN3gmx7Options11rootSectionEv(ptr noundef nonnull align 8 dereferenceable(16) %1)
  call void @llvm.lifetime.start.p0(i64 8, ptr nonnull %2) #24
  call void @_ZN3gmx24OptionsModifyingIteratorC1EPNS_17OptionSectionInfoE(ptr noundef nonnull align 8 dereferenceable(8) %2, ptr noundef nonnull %16)
  call void @_ZNK3gmx24OptionsModifyingIterator14acceptSectionsEPNS_23OptionsModifyingVisitorE(ptr noundef nonnull align 8 dereferenceable(8) %2, ptr noundef nonnull align 8 dereferenceable(16) %6)
  call void @_ZNK3gmx24OptionsModifyingIterator13acceptOptionsEPNS_23OptionsModifyingVisitorE(ptr noundef nonnull align 8 dereferenceable(8) %2, ptr noundef nonnull align 8 dereferenceable(16) %6)
  call void @llvm.lifetime.end.p0(i64 8, ptr nonnull %2) #24
  call void @llvm.lifetime.end.p0(i64 16, ptr nonnull %6) #24
  %17 = getelementptr inbounds nuw i8, ptr %0, i64 16
  %18 = load ptr, ptr %17, align 8, !tbaa !18
  %.not = icmp eq ptr %18, null
  br i1 %.not, label %21, label %19

19:                                               ; preds = %.noexc
  %20 = load i32, ptr %7, align 8, !tbaa !15
  store i32 %20, ptr %18, align 4, !tbaa !19
  br label %21

21:                                               ; preds = %19, %.noexc
  ret void
}